target datalayout = "e-m:e-p270:32:32-p271:32:32-p272:64:64-i64:64-i128:128-f80:128-n8:16:32:64-S128"
target triple = "x86_64-pc-linux-gnu"

%"class.icu_77::DayPeriodRules" = type { i8, i8, [24 x i32] }

; Function Attrs: mustprogress nounwind uwtable
define void @_ZN6icu_7714DayPeriodRules3addEiiNS0_9DayPeriodE(ptr noundef nonnull align 4 dereferenceable(100) %0, i32 noundef %1, i32 noundef %2, i32 noundef %3) #0 align 2 {
  %5 = alloca ptr, align 8
  %6 = alloca i32, align 4
  %7 = alloca i32, align 4
  %8 = alloca i32, align 4
  %9 = alloca i32, align 4
  store ptr %0, ptr %5, align 8, !tbaa !61
  store i32 %1, ptr %6, align 4, !tbaa !14
  store i32 %2, ptr %7, align 4, !tbaa !14
  store i32 %3, ptr %8, align 4, !tbaa !62
  %10 = load ptr, ptr %5, align 8
  call void @llvm.lifetime.start.p0(i64 4, ptr %9) #13
  %11 = load i32, ptr %6, align 4, !tbaa !14
  store i32 %11, ptr %9, align 4, !tbaa !14
  br label %12

12:                                               ; preds = %27, %4
  %13 = load i32, ptr %9, align 4, !tbaa !14
  %14 = load i32, ptr %7, align 4, !tbaa !14
  %15 = icmp ne i32 %13, %14
  br i1 %15, label %17, label %16

16:                                               ; preds = %12
  call void @llvm.lifetime.end.p0(i64 4, ptr %9) #13
  br label %30

17:                                               ; preds = %12
  %18 = load i32, ptr %9, align 4, !tbaa !14
  %19 = icmp eq i32 %18, 24
  br i1 %19, label %20, label %21

20:                                               ; preds = %17
  store i32 0, ptr %9, align 4, !tbaa !14
  br label %21

21:                                               ; preds = %20, %17
  %22 = load i32, ptr %8, align 4, !tbaa !62
  %23 = getelementptr inbounds nuw %"class.icu_77::DayPeriodRules", ptr %10, i32 0, i32 2
  %24 = load i32, ptr %9, align 4, !tbaa !14
  %25 = sext i32 %24 to i64
  %26 = getelementptr inbounds [24 x i32], ptr %23, i64 0, i64 %25
  store i32 %22, ptr %26, align 4, !tbaa !62
  br label %27

27:                                               ; preds = %21
  %28 = load i32, ptr %9, align 4, !tbaa !14
  %29 = add nsw i32 %28, 1
  store i32 %29, ptr %9, align 4, !tbaa !14
  br label %12, !llvm.loop !74

30:                                               ; preds = %16
  ret void
}