; Function Attrs: mustprogress nofree norecurse nosync nounwind memory(argmem: write) uwtable
define void @_ZN6icu_7714DayPeriodRules3addEiiNS0_9DayPeriodE(ptr noundef nonnull writeonly align 4 captures(none) dereferenceable(100) %0, i32 noundef %1, i32 noundef %2, i32 noundef %3) local_unnamed_addr #16 align 2 {
  %.not7 = icmp eq i32 %1, %2
  br i1 %.not7, label %._crit_edge, label %.lr.ph

.lr.ph:                                           ; preds = %4
  %5 = getelementptr inbounds nuw i8, ptr %0, i64 4
  br label %6

._crit_edge:                                      ; preds = %6, %4
  ret void

6:                                                ; preds = %.lr.ph, %6
  %.08 = phi i32 [ %1, %.lr.ph ], [ %10, %6 ]
  %7 = icmp eq i32 %.08, 24
  %spec.store.select = select i1 %7, i32 0, i32 %.08
  %8 = sext i32 %spec.store.select to i64
  %9 = getelementptr inbounds [24 x i32], ptr %5, i64 0, i64 %8
  store i32 %3, ptr %9, align 4, !tbaa !34
  %10 = add nsw i32 %spec.store.select, 1
  %.not = icmp eq i32 %10, %2
  br i1 %.not, label %._crit_edge, label %6, !llvm.loop !44
}